; Function Attrs: mustprogress uwtable
define void @_ZNK32pxrInternal_v0_24__pxrReserved__21UsdImagingPrimAdapter3GetERKNS_7UsdPrimERKNS_7SdfPathERKNS_7TfTokenENS_11UsdTimeCodeEPNS_7VtArrayIiEE(ptr dead_on_unwind noalias writable sret(%"class.pxrInternal_v0_24__pxrReserved__::VtValue") align 8 %0, ptr nocapture nonnull readnone align 8 %1, ptr noundef nonnull align 8 dereferenceable(32) %2, ptr nocapture nonnull readnone align 4 %3, ptr noundef nonnull align 8 dereferenceable(8) %4, double %5, ptr nocapture readnone %6) unnamed_addr #0 align 2 personality ptr @__gxx_personality_v0 {
  %8 = alloca %"class.pxrInternal_v0_24__pxrReserved__::UsdAttribute", align 8
  call void @_ZNK32pxrInternal_v0_24__pxrReserved__7UsdPrim12GetAttributeERKNS_7TfTokenE(ptr dead_on_unwind nonnull writable sret(%"class.pxrInternal_v0_24__pxrReserved__::UsdAttribute") align 8 %8, ptr noundef nonnull align 8 dereferenceable(32) %2, ptr noundef nonnull align 8 dereferenceable(8) %4)
  %9 = getelementptr inbounds nuw i8, ptr %0, i64 8
  store ptr null, ptr %9, align 8
  %10 = load i32, ptr %8, align 8
  switch i32 %10, label %_ZNK32pxrInternal_v0_24__pxrReserved__9UsdObjectcvbEv.exit.thread [
    i32 4, label %11
    i32 3, label %11
    i32 1, label %11
  ]

11:                                               ; preds = %7, %7, %7
  %12 = getelementptr inbounds nuw i8, ptr %8, i64 8
  %13 = load ptr, ptr %12, align 8
  %.not.i.i.i = icmp eq ptr %13, null
  br i1 %.not.i.i.i, label %_ZNK32pxrInternal_v0_24__pxrReserved__9UsdObjectcvbEv.exit.thread, label %_ZNK32pxrInternal_v0_24__pxrReserved__18Usd_PrimDataHandlecvbEv.exit.i.i

_ZNK32pxrInternal_v0_24__pxrReserved__18Usd_PrimDataHandlecvbEv.exit.i.i: ; preds = %11
  %14 = getelementptr inbounds nuw i8, ptr %13, i64 56
  %15 = load i64, ptr %14, align 8
  %16 = and i64 %15, 2048
  %.not3.i.i.i = icmp eq i64 %16, 0
  br i1 %.not3.i.i.i, label %17, label %_ZNK32pxrInternal_v0_24__pxrReserved__9UsdObjectcvbEv.exit.thread

17:                                               ; preds = %_ZNK32pxrInternal_v0_24__pxrReserved__18Usd_PrimDataHandlecvbEv.exit.i.i
  %18 = icmp eq i32 %10, 1
  br i1 %18, label %_ZNK32pxrInternal_v0_24__pxrReserved__9UsdObjectcvbEv.exit.thread9, label %19

19:                                               ; preds = %17
  %20 = invoke noundef i32 @_ZNK32pxrInternal_v0_24__pxrReserved__9UsdObject20_GetDefiningSpecTypeEv(ptr noundef nonnull align 8 dereferenceable(32) %8)
          to label %.noexc unwind label %28

.noexc:                                           ; preds = %19
  %21 = load i32, ptr %8, align 8
  %22 = icmp eq i32 %21, 3
  %23 = icmp eq i32 %20, 1
  %or.cond.i.i = and i1 %23, %22
  br i1 %or.cond.i.i, label %_ZNK32pxrInternal_v0_24__pxrReserved__9UsdObjectcvbEv.exit.thread9, label %_ZNK32pxrInternal_v0_24__pxrReserved__9UsdObjectcvbEv.exit

_ZNK32pxrInternal_v0_24__pxrReserved__9UsdObjectcvbEv.exit: ; preds = %.noexc
  %24 = icmp eq i32 %21, 4
  %25 = icmp eq i32 %20, 8
  %26 = and i1 %25, %24
  br i1 %26, label %_ZNK32pxrInternal_v0_24__pxrReserved__9UsdObjectcvbEv.exit.thread9, label %_ZNK32pxrInternal_v0_24__pxrReserved__9UsdObjectcvbEv.exit.thread

_ZNK32pxrInternal_v0_24__pxrReserved__9UsdObjectcvbEv.exit.thread9: ; preds = %.noexc, %17, %_ZNK32pxrInternal_v0_24__pxrReserved__9UsdObjectcvbEv.exit
  %27 = invoke noundef zeroext i1 @_ZNK32pxrInternal_v0_24__pxrReserved__12UsdAttribute3GetEPNS_7VtValueENS_11UsdTimeCodeE(ptr noundef nonnull align 8 dereferenceable(32) %8, ptr noundef nonnull %0, double %5)
          to label %_ZNK32pxrInternal_v0_24__pxrReserved__9UsdObjectcvbEv.exit.thread unwind label %28

28:                                               ; preds = %19, %_ZNK32pxrInternal_v0_24__pxrReserved__9UsdObjectcvbEv.exit.thread9
  %29 = landingpad { ptr, i32 }
          cleanup
  call void @_ZN32pxrInternal_v0_24__pxrReserved__7VtValueD2Ev(ptr noundef nonnull align 8 dereferenceable(16) %0) #30
  call void @_ZN32pxrInternal_v0_24__pxrReserved__12UsdAttributeD2Ev(ptr noundef nonnull align 8 dereferenceable(32) %8) #30
  resume { ptr, i32 } %29

_ZNK32pxrInternal_v0_24__pxrReserved__9UsdObjectcvbEv.exit.thread: ; preds = %11, %7, %_ZNK32pxrInternal_v0_24__pxrReserved__18Usd_PrimDataHandlecvbEv.exit.i.i, %_ZNK32pxrInternal_v0_24__pxrReserved__9UsdObjectcvbEv.exit, %_ZNK32pxrInternal_v0_24__pxrReserved__9UsdObjectcvbEv.exit.thread9
  %30 = getelementptr inbounds nuw i8, ptr %8, i64 24
  %31 = load ptr, ptr %30, align 8
  %32 = ptrtoint ptr %31 to i64
  %33 = and i64 %32, 7
  %.not.i.i.i.i.i = icmp eq i64 %33, 0
  br i1 %.not.i.i.i.i.i, label %_ZN32pxrInternal_v0_24__pxrReserved__7TfTokenD2Ev.exit.i.i.i, label %34

34:                                               ; preds = %_ZNK32pxrInternal_v0_24__pxrReserved__9UsdObjectcvbEv.exit.thread
  %35 = and i64 %32, -8
  %36 = inttoptr i64 %35 to ptr
  %37 = atomicrmw sub ptr %36, i32 2 release, align 4
  br label %_ZN32pxrInternal_v0_24__pxrReserved__7TfTokenD2Ev.exit.i.i.i

_ZN32pxrInternal_v0_24__pxrReserved__7TfTokenD2Ev.exit.i.i.i: ; preds = %34, %_ZNK32pxrInternal_v0_24__pxrReserved__9UsdObjectcvbEv.exit.thread
  %38 = getelementptr inbounds nuw i8, ptr %8, i64 16
  %39 = load i32, ptr %38, align 8
  %.not.i.i1.i.i.i = icmp eq i32 %39, 0
  br i1 %.not.i.i1.i.i.i, label %_ZN32pxrInternal_v0_24__pxrReserved__7SdfPathD2Ev.exit.i.i.i, label %40

40:                                               ; preds = %_ZN32pxrInternal_v0_24__pxrReserved__7TfTokenD2Ev.exit.i.i.i
  %41 = and i32 %39, 255
  %42 = lshr i32 %39, 8
  %43 = zext nneg i32 %41 to i64
  %44 = getelementptr inbounds [257 x ptr], ptr @_ZN32pxrInternal_v0_24__pxrReserved__8Sdf_PoolINS_15Sdf_PathPrimTagELj24ELj8ELj16384EE13_regionStartsE, i64 0, i64 %43
  %45 = load ptr, ptr %44, align 8
  %46 = mul nuw nsw i32 %42, 24
  %47 = zext nneg i32 %46 to i64
  %48 = getelementptr inbounds i8, ptr %45, i64 %47
  %49 = getelementptr inbounds nuw i8, ptr %48, i64 8
  %50 = atomicrmw sub ptr %49, i32 1 seq_cst, align 4
  %51 = and i32 %50, 2147483647
  %52 = icmp eq i32 %51, 1
  br i1 %52, label %53, label %_ZN32pxrInternal_v0_24__pxrReserved__7SdfPathD2Ev.exit.i.i.i

53:                                               ; preds = %40
  invoke void @_ZNK32pxrInternal_v0_24__pxrReserved__12Sdf_PathNode8_DestroyEv(ptr noundef nonnull align 8 dereferenceable(16) %48)
          to label %_ZN32pxrInternal_v0_24__pxrReserved__7SdfPathD2Ev.exit.i.i.i unwind label %54

54:                                               ; preds = %53
  %55 = landingpad { ptr, i32 }
          catch ptr null
  %56 = extractvalue { ptr, i32 } %55, 0
  call void @__clang_call_terminate(ptr %56) #32
  unreachable

_ZN32pxrInternal_v0_24__pxrReserved__7SdfPathD2Ev.exit.i.i.i: ; preds = %53, %40, %_ZN32pxrInternal_v0_24__pxrReserved__7TfTokenD2Ev.exit.i.i.i
  %57 = getelementptr inbounds nuw i8, ptr %8, i64 8
  %58 = load ptr, ptr %57, align 8
  %.not.i.i.i.i.i.i = icmp eq ptr %58, null
  br i1 %.not.i.i.i.i.i.i, label %_ZN32pxrInternal_v0_24__pxrReserved__12UsdAttributeD2Ev.exit, label %59

59:                                               ; preds = %_ZN32pxrInternal_v0_24__pxrReserved__7SdfPathD2Ev.exit.i.i.i
  %60 = getelementptr inbounds nuw i8, ptr %58, i64 48
  %61 = atomicrmw sub ptr %60, i64 1 release, align 8
  %.not1.i.i.i.i.i.i = icmp eq i64 %61, 1
  br i1 %.not1.i.i.i.i.i.i, label %62, label %_ZN32pxrInternal_v0_24__pxrReserved__12UsdAttributeD2Ev.exit

62:                                               ; preds = %59
  call void @_ZN32pxrInternal_v0_24__pxrReserved__12Usd_PrimDataD1Ev(ptr noundef nonnull align 8 dereferenceable(64) %58) #30
  call void @_ZdlPvm(ptr noundef nonnull %58, i64 noundef 64) #33
  br label %_ZN32pxrInternal_v0_24__pxrReserved__12UsdAttributeD2Ev.exit

_ZN32pxrInternal_v0_24__pxrReserved__12UsdAttributeD2Ev.exit: ; preds = %_ZN32pxrInternal_v0_24__pxrReserved__7SdfPathD2Ev.exit.i.i.i, %59, %62
  ret void
}